target datalayout = "e-m:e-p270:32:32-p271:32:32-p272:64:64-i64:64-i128:128-f80:128-n8:16:32:64-S128"
target triple = "x86_64-pc-linux-gnu"

%struct.winsize = type { i16, i16, i16, i16 }

; Function Attrs: mustprogress nounwind uwtable
define noundef i32 @_ZN11OpenImageIO6v3_1_07Sysutil16terminal_columnsEv() #10 {
  %1 = alloca i32, align 4
  %2 = alloca %struct.winsize, align 2
  call void @llvm.lifetime.start.p0(i64 4, ptr %1) #3
  store i32 80, ptr %1, align 4, !tbaa !14
  call void @llvm.lifetime.start.p0(i64 8, ptr %2) #3
  %3 = call i32 (i32, i64, ...) @ioctl(i32 noundef 0, i64 noundef 21523, ptr noundef %2) #3
  %4 = getelementptr inbounds nuw %struct.winsize, ptr %2, i32 0, i32 1
  %5 = load i16, ptr %4, align 2, !tbaa !40
  %6 = zext i16 %5 to i32
  store i32 %6, ptr %1, align 4, !tbaa !14
  %7 = load i32, ptr %1, align 4, !tbaa !14
  call void @llvm.lifetime.end.p0(i64 8, ptr %2) #3
  call void @llvm.lifetime.end.p0(i64 4, ptr %1) #3
  ret i32 %7
}