; Function Attrs: mustprogress nounwind uwtable
define noundef range(i32 0, 65536) i32 @_ZN11OpenImageIO6v3_1_07Sysutil16terminal_columnsEv() local_unnamed_addr #11 {
  %1 = alloca %struct.winsize, align 2
  call void @llvm.lifetime.start.p0(i64 8, ptr nonnull %1) #32
  %2 = call i32 (i32, i64, ...) @ioctl(i32 noundef 0, i64 noundef 21523, ptr noundef nonnull %1) #32
  %3 = getelementptr inbounds nuw i8, ptr %1, i64 2
  %4 = load i16, ptr %3, align 2, !tbaa !23
  %5 = zext i16 %4 to i32
  call void @llvm.lifetime.end.p0(i64 8, ptr nonnull %1) #32
  ret i32 %5
}